; Function Attrs: mustprogress uwtable
define void @_ZN7testing4Mock31RegisterUseByOnCallOrExpectCallEPKvPKci(ptr noundef %0, ptr noundef %1, i32 noundef %2) local_unnamed_addr #3 align 2 personality ptr @__gxx_personality_v0 {
  %4 = alloca ptr, align 8
  store ptr %0, ptr %4, align 8, !tbaa !292
  tail call void @_ZN7testing8internal9MutexBase4LockEv(ptr noundef nonnull align 8 dereferenceable(56) @_ZN7testing8internal13g_gmock_mutexE)
  %5 = invoke fastcc noundef nonnull align 8 dereferenceable(136) ptr @_ZNSt3mapIPKvN7testing12_GLOBAL__N_115MockObjectStateESt4lessIS1_ESaISt4pairIKS1_S4_EEEixERS8_(ptr noundef nonnull align 8 dereferenceable(8) %4)
          to label %6 unwind label %29

6:                                                ; preds = %3
  %7 = load ptr, ptr %5, align 8, !tbaa !315
  %8 = icmp eq ptr %7, null
  br i1 %8, label %9, label %_ZNSt7__cxx1112basic_stringIcSt11char_traitsIcESaIcEEaSEPKc.exit14

9:                                                ; preds = %6
  store ptr %1, ptr %5, align 8, !tbaa !315
  %10 = getelementptr inbounds nuw i8, ptr %5, i64 8
  store i32 %2, ptr %10, align 8, !tbaa !316
  %11 = invoke noundef ptr @_ZN7testing8UnitTest11GetInstanceEv()
          to label %12 unwind label %31

12:                                               ; preds = %9
  %13 = invoke noundef ptr @_ZNK7testing8UnitTest17current_test_infoEv(ptr noundef nonnull align 8 dereferenceable(72) %11)
          to label %14 unwind label %31

14:                                               ; preds = %12
  %.not = icmp eq ptr %13, null
  br i1 %.not, label %_ZNSt7__cxx1112basic_stringIcSt11char_traitsIcESaIcEEaSEPKc.exit14, label %15

15:                                               ; preds = %14
  %16 = load ptr, ptr %13, align 8, !tbaa !3
  %17 = getelementptr inbounds nuw i8, ptr %5, i64 16
  %18 = getelementptr inbounds nuw i8, ptr %5, i64 24
  %19 = load i64, ptr %18, align 8, !tbaa !11
  %20 = tail call noundef i64 @strlen(ptr noundef nonnull dereferenceable(1) %16) #33
  %21 = invoke noundef nonnull align 8 dereferenceable(32) ptr @_ZNSt7__cxx1112basic_stringIcSt11char_traitsIcESaIcEE10_M_replaceEmmPKcm(ptr noundef nonnull align 8 dereferenceable(32) %17, i64 noundef 0, i64 noundef %19, ptr noundef nonnull %16, i64 noundef %20)
          to label %_ZNSt7__cxx1112basic_stringIcSt11char_traitsIcESaIcEEaSEPKc.exit unwind label %31

_ZNSt7__cxx1112basic_stringIcSt11char_traitsIcESaIcEEaSEPKc.exit: ; preds = %15
  %22 = getelementptr inbounds nuw i8, ptr %13, i64 32
  %23 = load ptr, ptr %22, align 8, !tbaa !3
  %24 = getelementptr inbounds nuw i8, ptr %5, i64 48
  %25 = getelementptr inbounds nuw i8, ptr %5, i64 56
  %26 = load i64, ptr %25, align 8, !tbaa !11
  %27 = tail call noundef i64 @strlen(ptr noundef nonnull dereferenceable(1) %23) #33
  %28 = invoke noundef nonnull align 8 dereferenceable(32) ptr @_ZNSt7__cxx1112basic_stringIcSt11char_traitsIcESaIcEE10_M_replaceEmmPKcm(ptr noundef nonnull align 8 dereferenceable(32) %24, i64 noundef 0, i64 noundef %26, ptr noundef nonnull %23, i64 noundef %27)
          to label %_ZNSt7__cxx1112basic_stringIcSt11char_traitsIcESaIcEEaSEPKc.exit14 unwind label %31

29:                                               ; preds = %3
  %30 = landingpad { ptr, i32 }
          cleanup
  br label %36

31:                                               ; preds = %_ZNSt7__cxx1112basic_stringIcSt11char_traitsIcESaIcEEaSEPKc.exit, %15, %12, %9
  %32 = landingpad { ptr, i32 }
          cleanup
  br label %36

_ZNSt7__cxx1112basic_stringIcSt11char_traitsIcESaIcEEaSEPKc.exit14: ; preds = %_ZNSt7__cxx1112basic_stringIcSt11char_traitsIcESaIcEEaSEPKc.exit, %14, %6
  invoke void @_ZN7testing8internal9MutexBase6UnlockEv(ptr noundef nonnull align 8 dereferenceable(56) @_ZN7testing8internal13g_gmock_mutexE)
          to label %_ZN7testing8internal14GTestMutexLockD2Ev.exit unwind label %33

33:                                               ; preds = %_ZNSt7__cxx1112basic_stringIcSt11char_traitsIcESaIcEEaSEPKc.exit14
  %34 = landingpad { ptr, i32 }
          catch ptr null
  %35 = extractvalue { ptr, i32 } %34, 0
  tail call void @__clang_call_terminate(ptr %35) #37
  unreachable

_ZN7testing8internal14GTestMutexLockD2Ev.exit:    ; preds = %_ZNSt7__cxx1112basic_stringIcSt11char_traitsIcESaIcEEaSEPKc.exit14
  ret void

36:                                               ; preds = %31, %29
  %.pn = phi { ptr, i32 } [ %32, %31 ], [ %30, %29 ]
  invoke void @_ZN7testing8internal9MutexBase6UnlockEv(ptr noundef nonnull align 8 dereferenceable(56) @_ZN7testing8internal13g_gmock_mutexE)
          to label %_ZN7testing8internal14GTestMutexLockD2Ev.exit15 unwind label %37

37:                                               ; preds = %36
  %38 = landingpad { ptr, i32 }
          catch ptr null
  %39 = extractvalue { ptr, i32 } %38, 0
  tail call void @__clang_call_terminate(ptr %39) #37
  unreachable

_ZN7testing8internal14GTestMutexLockD2Ev.exit15:  ; preds = %36
  resume { ptr, i32 } %.pn
}